#include <math.h>
#include <stdio.h>
#include <stdlib.h>
#include <string.h>

main()
{
char c;

int sz[100][100];
int row,col,ROW,COL;
scanf("%d %d",&ROW,&COL);
for(row=0;row<ROW;row++){
                         for(col=0;col<COL;col++){
                                                  scanf("%d",&sz[row][col]);
                                                  
                                                  }}
printf("%d\n",sz[0][0]);

int i=0,j,k;

for(j=1;j<COL;j++){
                    
                    for(k=j;k>=0;k--){
                    if(j-k<ROW){
                    printf("%d\n",sz[j-k][k]);}}
                    }
for(j=COL;j<=COL+ROW;j++){
                    
                    for(k=COL-1;k>=0;k--){
                    if(j-k<ROW){
                    printf("%d\n",sz[j-k][k]);}}
                    }



scanf("%s",c);
return 0;
}
