; ModuleID = '4/2024.c'
source_filename = "4/2024.c"
target datalayout = "e-m:e-p270:32:32-p271:32:32-p272:64:64-i64:64-f80:128-n8:16:32:64-S128"
target triple = "x86_64-pc-linux-gnu"

@.str = private unnamed_addr constant [6 x i8] c"%d %d\00", align 1
@.str.1 = private unnamed_addr constant [3 x i8] c"%d\00", align 1
@.str.2 = private unnamed_addr constant [4 x i8] c"%d\0A\00", align 1
@.str.3 = private unnamed_addr constant [3 x i8] c"%s\00", align 1

; Function Attrs: noinline nounwind uwtable
define dso_local i32 @main() #0 {
  %1 = alloca i32, align 4
  %2 = alloca i8, align 1
  %3 = alloca [100 x [100 x i32]], align 16
  %4 = alloca i32, align 4
  %5 = alloca i32, align 4
  %6 = alloca i32, align 4
  %7 = alloca i32, align 4
  %8 = alloca i32, align 4
  %9 = alloca i32, align 4
  %10 = alloca i32, align 4
  store i32 0, i32* %1, align 4
  %11 = call i32 (i8*, ...) @__isoc99_scanf(i8* getelementptr inbounds ([6 x i8], [6 x i8]* @.str, i64 0, i64 0), i32* %6, i32* %7)
  store i32 0, i32* %4, align 4
  br label %12

12:                                               ; preds = %33, %0
  %13 = load i32, i32* %4, align 4
  %14 = load i32, i32* %6, align 4
  %15 = icmp slt i32 %13, %14
  br i1 %15, label %16, label %36

16:                                               ; preds = %12
  store i32 0, i32* %5, align 4
  br label %17

17:                                               ; preds = %29, %16
  %18 = load i32, i32* %5, align 4
  %19 = load i32, i32* %7, align 4
  %20 = icmp slt i32 %18, %19
  br i1 %20, label %21, label %32

21:                                               ; preds = %17
  %22 = load i32, i32* %4, align 4
  %23 = sext i32 %22 to i64
  %24 = getelementptr inbounds [100 x [100 x i32]], [100 x [100 x i32]]* %3, i64 0, i64 %23
  %25 = load i32, i32* %5, align 4
  %26 = sext i32 %25 to i64
  %27 = getelementptr inbounds [100 x i32], [100 x i32]* %24, i64 0, i64 %26
  %28 = call i32 (i8*, ...) @__isoc99_scanf(i8* getelementptr inbounds ([3 x i8], [3 x i8]* @.str.1, i64 0, i64 0), i32* %27)
  br label %29

29:                                               ; preds = %21
  %30 = load i32, i32* %5, align 4
  %31 = add nsw i32 %30, 1
  store i32 %31, i32* %5, align 4
  br label %17

32:                                               ; preds = %17
  br label %33

33:                                               ; preds = %32
  %34 = load i32, i32* %4, align 4
  %35 = add nsw i32 %34, 1
  store i32 %35, i32* %4, align 4
  br label %12

36:                                               ; preds = %12
  %37 = getelementptr inbounds [100 x [100 x i32]], [100 x [100 x i32]]* %3, i64 0, i64 0
  %38 = getelementptr inbounds [100 x i32], [100 x i32]* %37, i64 0, i64 0
  %39 = load i32, i32* %38, align 16
  %40 = call i32 (i8*, ...) @printf(i8* getelementptr inbounds ([4 x i8], [4 x i8]* @.str.2, i64 0, i64 0), i32 %39)
  store i32 0, i32* %8, align 4
  store i32 1, i32* %9, align 4
  br label %41

41:                                               ; preds = %72, %36
  %42 = load i32, i32* %9, align 4
  %43 = load i32, i32* %7, align 4
  %44 = icmp slt i32 %42, %43
  br i1 %44, label %45, label %75

45:                                               ; preds = %41
  %46 = load i32, i32* %9, align 4
  store i32 %46, i32* %10, align 4
  br label %47

47:                                               ; preds = %68, %45
  %48 = load i32, i32* %10, align 4
  %49 = icmp sge i32 %48, 0
  br i1 %49, label %50, label %71

50:                                               ; preds = %47
  %51 = load i32, i32* %9, align 4
  %52 = load i32, i32* %10, align 4
  %53 = sub nsw i32 %51, %52
  %54 = load i32, i32* %6, align 4
  %55 = icmp slt i32 %53, %54
  br i1 %55, label %56, label %67

56:                                               ; preds = %50
  %57 = load i32, i32* %9, align 4
  %58 = load i32, i32* %10, align 4
  %59 = sub nsw i32 %57, %58
  %60 = sext i32 %59 to i64
  %61 = getelementptr inbounds [100 x [100 x i32]], [100 x [100 x i32]]* %3, i64 0, i64 %60
  %62 = load i32, i32* %10, align 4
  %63 = sext i32 %62 to i64
  %64 = getelementptr inbounds [100 x i32], [100 x i32]* %61, i64 0, i64 %63
  %65 = load i32, i32* %64, align 4
  %66 = call i32 (i8*, ...) @printf(i8* getelementptr inbounds ([4 x i8], [4 x i8]* @.str.2, i64 0, i64 0), i32 %65)
  br label %67

67:                                               ; preds = %56, %50
  br label %68

68:                                               ; preds = %67
  %69 = load i32, i32* %10, align 4
  %70 = add nsw i32 %69, -1
  store i32 %70, i32* %10, align 4
  br label %47

71:                                               ; preds = %47
  br label %72

72:                                               ; preds = %71
  %73 = load i32, i32* %9, align 4
  %74 = add nsw i32 %73, 1
  store i32 %74, i32* %9, align 4
  br label %41

75:                                               ; preds = %41
  %76 = load i32, i32* %7, align 4
  store i32 %76, i32* %9, align 4
  br label %77

77:                                               ; preds = %111, %75
  %78 = load i32, i32* %9, align 4
  %79 = load i32, i32* %7, align 4
  %80 = load i32, i32* %6, align 4
  %81 = add nsw i32 %79, %80
  %82 = icmp sle i32 %78, %81
  br i1 %82, label %83, label %114

83:                                               ; preds = %77
  %84 = load i32, i32* %7, align 4
  %85 = sub nsw i32 %84, 1
  store i32 %85, i32* %10, align 4
  br label %86

86:                                               ; preds = %107, %83
  %87 = load i32, i32* %10, align 4
  %88 = icmp sge i32 %87, 0
  br i1 %88, label %89, label %110

89:                                               ; preds = %86
  %90 = load i32, i32* %9, align 4
  %91 = load i32, i32* %10, align 4
  %92 = sub nsw i32 %90, %91
  %93 = load i32, i32* %6, align 4
  %94 = icmp slt i32 %92, %93
  br i1 %94, label %95, label %106

95:                                               ; preds = %89
  %96 = load i32, i32* %9, align 4
  %97 = load i32, i32* %10, align 4
  %98 = sub nsw i32 %96, %97
  %99 = sext i32 %98 to i64
  %100 = getelementptr inbounds [100 x [100 x i32]], [100 x [100 x i32]]* %3, i64 0, i64 %99
  %101 = load i32, i32* %10, align 4
  %102 = sext i32 %101 to i64
  %103 = getelementptr inbounds [100 x i32], [100 x i32]* %100, i64 0, i64 %102
  %104 = load i32, i32* %103, align 4
  %105 = call i32 (i8*, ...) @printf(i8* getelementptr inbounds ([4 x i8], [4 x i8]* @.str.2, i64 0, i64 0), i32 %104)
  br label %106

106:                                              ; preds = %95, %89
  br label %107

107:                                              ; preds = %106
  %108 = load i32, i32* %10, align 4
  %109 = add nsw i32 %108, -1
  store i32 %109, i32* %10, align 4
  br label %86

110:                                              ; preds = %86
  br label %111

111:                                              ; preds = %110
  %112 = load i32, i32* %9, align 4
  %113 = add nsw i32 %112, 1
  store i32 %113, i32* %9, align 4
  br label %77

114:                                              ; preds = %77
  %115 = load i8, i8* %2, align 1
  %116 = sext i8 %115 to i32
  %117 = call i32 (i8*, ...) @__isoc99_scanf(i8* getelementptr inbounds ([3 x i8], [3 x i8]* @.str.3, i64 0, i64 0), i32 %116)
  ret i32 0
}

declare dso_local i32 @__isoc99_scanf(i8*, ...) #1

declare dso_local i32 @printf(i8*, ...) #1


!llvm.module.flags = !{!0}
!llvm.ident = !{!1}

!0 = !{i32 1, !"wchar_size", i32 4}
!1 = !{!"clang version 10.0.0-4ubuntu1 "}
