; ModuleID = 'source-C-CXX/3/2024.c'
source_filename = "source-C-CXX/3/2024.c"
target datalayout = "e-m:e-p270:32:32-p271:32:32-p272:64:64-i64:64-f80:128-n8:16:32:64-S128"
target triple = "x86_64-pc-linux-gnu"

@.str = private unnamed_addr constant [6 x i8] c"%d %d\00", align 1
@.str.1 = private unnamed_addr constant [3 x i8] c"%d\00", align 1
@.str.2 = private unnamed_addr constant [4 x i8] c"%d\0A\00", align 1
@.str.3 = private unnamed_addr constant [3 x i8] c"%s\00", align 1

; Function Attrs: nofree nounwind sspstrong uwtable
define dso_local i32 @main() local_unnamed_addr #0 {
  %1 = alloca [100 x [100 x i32]], align 16
  %2 = alloca i32, align 4
  %3 = alloca i32, align 4
  %4 = bitcast [100 x [100 x i32]]* %1 to i8*
  call void @llvm.lifetime.start.p0i8(i64 40000, i8* nonnull %4) #3
  %5 = bitcast i32* %2 to i8*
  call void @llvm.lifetime.start.p0i8(i64 4, i8* nonnull %5) #3
  %6 = bitcast i32* %3 to i8*
  call void @llvm.lifetime.start.p0i8(i64 4, i8* nonnull %6) #3
  %7 = call i32 (i8*, ...) @__isoc99_scanf(i8* getelementptr inbounds ([6 x i8], [6 x i8]* @.str, i64 0, i64 0), i32* nonnull %2, i32* nonnull %3)
  %8 = load i32, i32* %2, align 4, !tbaa !5
  %9 = icmp sgt i32 %8, 0
  %10 = load i32, i32* %3, align 4
  %11 = icmp sgt i32 %10, 0
  %12 = select i1 %9, i1 %11, i1 false
  br i1 %12, label %13, label %37

13:                                               ; preds = %0, %28
  %14 = phi i32 [ %29, %28 ], [ %8, %0 ]
  %15 = phi i32 [ %30, %28 ], [ %10, %0 ]
  %16 = phi i64 [ %31, %28 ], [ 0, %0 ]
  %17 = icmp sgt i32 %15, 0
  br i1 %17, label %18, label %28

18:                                               ; preds = %13, %18
  %19 = phi i64 [ %22, %18 ], [ 0, %13 ]
  %20 = getelementptr inbounds [100 x [100 x i32]], [100 x [100 x i32]]* %1, i64 0, i64 %16, i64 %19
  %21 = call i32 (i8*, ...) @__isoc99_scanf(i8* getelementptr inbounds ([3 x i8], [3 x i8]* @.str.1, i64 0, i64 0), i32* nonnull %20)
  %22 = add nuw nsw i64 %19, 1
  %23 = load i32, i32* %3, align 4, !tbaa !5
  %24 = sext i32 %23 to i64
  %25 = icmp slt i64 %22, %24
  br i1 %25, label %18, label %26, !llvm.loop !9

26:                                               ; preds = %18
  %27 = load i32, i32* %2, align 4, !tbaa !5
  br label %28

28:                                               ; preds = %26, %13
  %29 = phi i32 [ %27, %26 ], [ %14, %13 ]
  %30 = phi i32 [ %23, %26 ], [ %15, %13 ]
  %31 = add nuw nsw i64 %16, 1
  %32 = sext i32 %29 to i64
  %33 = icmp slt i64 %31, %32
  br i1 %33, label %13, label %34, !llvm.loop !11

34:                                               ; preds = %28
  %35 = getelementptr inbounds [100 x [100 x i32]], [100 x [100 x i32]]* %1, i64 0, i64 0, i64 0
  %36 = load i32, i32* %35, align 16, !tbaa !5
  br label %37

37:                                               ; preds = %34, %0
  %38 = phi i32 [ %36, %34 ], [ undef, %0 ]
  %39 = call i32 (i8*, ...) @printf(i8* nonnull dereferenceable(1) getelementptr inbounds ([4 x i8], [4 x i8]* @.str.2, i64 0, i64 0), i32 %38)
  %40 = load i32, i32* %3, align 4, !tbaa !5
  %41 = icmp sgt i32 %40, 1
  br i1 %41, label %42, label %44

42:                                               ; preds = %37, %63
  %43 = phi i64 [ %65, %63 ], [ 1, %37 ]
  br label %50

44:                                               ; preds = %63, %37
  %45 = phi i32 [ %40, %37 ], [ %64, %63 ]
  %46 = load i32, i32* %2, align 4, !tbaa !5
  %47 = icmp slt i32 %46, 0
  br i1 %47, label %100, label %48

48:                                               ; preds = %44
  %49 = sext i32 %45 to i64
  br label %68

50:                                               ; preds = %42, %60
  %51 = phi i64 [ %43, %42 ], [ %62, %60 ]
  %52 = sub nuw nsw i64 %43, %51
  %53 = load i32, i32* %2, align 4, !tbaa !5
  %54 = sext i32 %53 to i64
  %55 = icmp slt i64 %52, %54
  br i1 %55, label %56, label %60

56:                                               ; preds = %50
  %57 = getelementptr inbounds [100 x [100 x i32]], [100 x [100 x i32]]* %1, i64 0, i64 %52, i64 %51
  %58 = load i32, i32* %57, align 4, !tbaa !5
  %59 = call i32 (i8*, ...) @printf(i8* nonnull dereferenceable(1) getelementptr inbounds ([4 x i8], [4 x i8]* @.str.2, i64 0, i64 0), i32 %58)
  br label %60

60:                                               ; preds = %50, %56
  %61 = icmp sgt i64 %51, 0
  %62 = add nsw i64 %51, -1
  br i1 %61, label %50, label %63, !llvm.loop !13

63:                                               ; preds = %60
  %64 = load i32, i32* %3, align 4, !tbaa !5
  %65 = add nuw nsw i64 %43, 1
  %66 = sext i32 %64 to i64
  %67 = icmp slt i64 %65, %66
  br i1 %67, label %42, label %44, !llvm.loop !14

68:                                               ; preds = %48, %93
  %69 = phi i32 [ %46, %48 ], [ %94, %93 ]
  %70 = phi i32 [ %45, %48 ], [ %95, %93 ]
  %71 = phi i64 [ %49, %48 ], [ %96, %93 ]
  %72 = icmp sgt i32 %70, 0
  br i1 %72, label %73, label %93

73:                                               ; preds = %68
  %74 = zext i32 %70 to i64
  br label %75

75:                                               ; preds = %88, %73
  %76 = phi i32 [ %69, %73 ], [ %89, %88 ]
  %77 = phi i64 [ %74, %73 ], [ %78, %88 ]
  %78 = add nsw i64 %77, -1
  %79 = sub nsw i64 %71, %78
  %80 = sext i32 %76 to i64
  %81 = icmp slt i64 %79, %80
  br i1 %81, label %82, label %86

82:                                               ; preds = %75
  %83 = getelementptr inbounds [100 x [100 x i32]], [100 x [100 x i32]]* %1, i64 0, i64 %79, i64 %78
  %84 = load i32, i32* %83, align 4, !tbaa !5
  %85 = call i32 (i8*, ...) @printf(i8* nonnull dereferenceable(1) getelementptr inbounds ([4 x i8], [4 x i8]* @.str.2, i64 0, i64 0), i32 %84)
  br label %86

86:                                               ; preds = %75, %82
  %87 = icmp sgt i64 %77, 1
  br i1 %87, label %88, label %90, !llvm.loop !15

88:                                               ; preds = %86
  %89 = load i32, i32* %2, align 4, !tbaa !5
  br label %75

90:                                               ; preds = %86
  %91 = load i32, i32* %3, align 4, !tbaa !5
  %92 = load i32, i32* %2, align 4, !tbaa !5
  br label %93

93:                                               ; preds = %90, %68
  %94 = phi i32 [ %92, %90 ], [ %69, %68 ]
  %95 = phi i32 [ %91, %90 ], [ %70, %68 ]
  %96 = add nsw i64 %71, 1
  %97 = add nsw i32 %94, %95
  %98 = sext i32 %97 to i64
  %99 = icmp slt i64 %71, %98
  br i1 %99, label %68, label %100, !llvm.loop !16

100:                                              ; preds = %93, %44
  %101 = call i32 (i8*, ...) @__isoc99_scanf(i8* getelementptr inbounds ([3 x i8], [3 x i8]* @.str.3, i64 0, i64 0), i32 0)
  call void @llvm.lifetime.end.p0i8(i64 4, i8* nonnull %6) #3
  call void @llvm.lifetime.end.p0i8(i64 4, i8* nonnull %5) #3
  call void @llvm.lifetime.end.p0i8(i64 40000, i8* nonnull %4) #3
  ret i32 0
}

; Function Attrs: argmemonly mustprogress nofree nosync nounwind willreturn
declare void @llvm.lifetime.start.p0i8(i64 immarg, i8* nocapture) #1

; Function Attrs: nofree nounwind
declare noundef i32 @__isoc99_scanf(i8* nocapture noundef readonly, ...) local_unnamed_addr #2

; Function Attrs: nofree nounwind
declare noundef i32 @printf(i8* nocapture noundef readonly, ...) local_unnamed_addr #2

; Function Attrs: argmemonly mustprogress nofree nosync nounwind willreturn
declare void @llvm.lifetime.end.p0i8(i64 immarg, i8* nocapture) #1


!llvm.module.flags = !{!0, !1, !2, !3}
!llvm.ident = !{!4}

!0 = !{i32 1, !"wchar_size", i32 4}
!1 = !{i32 7, !"PIC Level", i32 2}
!2 = !{i32 7, !"PIE Level", i32 2}
!3 = !{i32 7, !"uwtable", i32 1}
!4 = !{!"clang version 13.0.0"}
!5 = !{!6, !6, i64 0}
!6 = !{!"int", !7, i64 0}
!7 = !{!"omnipotent char", !8, i64 0}
!8 = !{!"Simple C/C++ TBAA"}
!9 = distinct !{!9, !10}
!10 = !{!"llvm.loop.mustprogress"}
!11 = distinct !{!11, !10, !12}
!12 = !{!"llvm.loop.unswitch.partial.disable"}
!13 = distinct !{!13, !10}
!14 = distinct !{!14, !10}
!15 = distinct !{!15, !10}
!16 = distinct !{!16, !10}
